; Function Attrs: nounwind uwtable
define ptr @l_Std_Time_Duration_toNanoseconds(ptr noundef readonly captures(none) %0) local_unnamed_addr #0 {
  %2 = getelementptr inbounds nuw i8, ptr %0, i64 8
  %3 = load ptr, ptr %2, align 8, !tbaa !4
  %4 = load ptr, ptr @l_Std_Time_Duration_ofNanoseconds___closed__1, align 8, !tbaa !4
  %5 = ptrtoint ptr %3 to i64
  %6 = and i64 %5, 1
  %.not.i8 = icmp eq i64 %6, 0
  br i1 %.not.i8, label %.critedge.i, label %7, !prof !8

7:                                                ; preds = %1
  %8 = ptrtoint ptr %4 to i64
  %9 = and i64 %8, 1
  %.not7.i = icmp eq i64 %9, 0
  br i1 %.not7.i, label %.critedge.i, label %10, !prof !8

10:                                               ; preds = %7
  %11 = shl i64 %5, 31
  %12 = ashr i64 %11, 32
  %13 = shl i64 %8, 31
  %14 = ashr i64 %13, 32
  %15 = mul nsw i64 %14, %12
  %16 = add nsw i64 %15, 2147483648
  %17 = icmp ult i64 %16, 4294967296
  br i1 %17, label %18, label %23, !prof !14

18:                                               ; preds = %10
  %19 = shl nsw i64 %15, 1
  %20 = and i64 %19, 8589934590
  %21 = or disjoint i64 %20, 1
  %22 = inttoptr i64 %21 to ptr
  br label %lean_int_mul.exit

23:                                               ; preds = %10
  %24 = tail call ptr @lean_big_int64_to_int(i64 noundef range(i64 -4611686016279904256, 4611686018427387905) %15) #3
  br label %lean_int_mul.exit

.critedge.i:                                      ; preds = %7, %1
  %25 = tail call ptr @lean_int_big_mul(ptr noundef %3, ptr noundef %4) #3
  br label %lean_int_mul.exit

lean_int_mul.exit:                                ; preds = %18, %23, %.critedge.i
  %.0.i = phi ptr [ %25, %.critedge.i ], [ %22, %18 ], [ %24, %23 ]
  %26 = getelementptr inbounds nuw i8, ptr %0, i64 16
  %27 = load ptr, ptr %26, align 8, !tbaa !4
  %28 = ptrtoint ptr %.0.i to i64
  %29 = and i64 %28, 1
  %.not.i9 = icmp eq i64 %29, 0
  br i1 %.not.i9, label %49, label %30, !prof !8

30:                                               ; preds = %lean_int_mul.exit
  %31 = ptrtoint ptr %27 to i64
  %32 = and i64 %31, 1
  %.not7.i10 = icmp eq i64 %32, 0
  br i1 %.not7.i10, label %lean_int_add.exit.thread15, label %34, !prof !8

lean_int_add.exit.thread15:                       ; preds = %30
  %33 = tail call ptr @lean_int_big_add(ptr noundef %.0.i, ptr noundef %27) #3
  br label %lean_dec.exit

34:                                               ; preds = %30
  %35 = shl i64 %28, 31
  %36 = ashr i64 %35, 32
  %37 = shl i64 %31, 31
  %38 = ashr i64 %37, 32
  %39 = add nsw i64 %38, %36
  %40 = add nsw i64 %39, 2147483648
  %41 = icmp ult i64 %40, 4294967296
  br i1 %41, label %42, label %47, !prof !14

42:                                               ; preds = %34
  %43 = shl nsw i64 %39, 1
  %44 = and i64 %43, 8589934590
  %45 = or disjoint i64 %44, 1
  %46 = inttoptr i64 %45 to ptr
  br label %lean_dec.exit

47:                                               ; preds = %34
  %48 = tail call ptr @lean_big_int64_to_int(i64 noundef range(i64 -4611686016279904256, 4611686018427387905) %39) #3
  br label %lean_dec.exit

49:                                               ; preds = %lean_int_mul.exit
  %50 = tail call ptr @lean_int_big_add(ptr noundef %.0.i, ptr noundef %27) #3
  %51 = load i32, ptr %.0.i, align 4, !tbaa !9
  %52 = icmp sgt i32 %51, 1
  br i1 %52, label %53, label %55, !prof !14

53:                                               ; preds = %49
  %54 = add nsw i32 %51, -1
  store i32 %54, ptr %.0.i, align 4, !tbaa !9
  br label %lean_dec.exit

55:                                               ; preds = %49
  %.not.i = icmp eq i32 %51, 0
  br i1 %.not.i, label %lean_dec.exit, label %56

56:                                               ; preds = %55
  tail call void @lean_dec_ref_cold(ptr noundef nonnull %.0.i) #3
  br label %lean_dec.exit

lean_dec.exit:                                    ; preds = %47, %42, %56, %55, %53, %lean_int_add.exit.thread15
  %.0.i1114 = phi ptr [ %33, %lean_int_add.exit.thread15 ], [ %50, %53 ], [ %50, %55 ], [ %50, %56 ], [ %48, %47 ], [ %46, %42 ]
  ret ptr %.0.i1114
}